target datalayout = "e-m:e-p270:32:32-p271:32:32-p272:64:64-i64:64-i128:128-f80:128-n8:16:32:64-S128"
target triple = "x86_64-pc-linux-gnu"

%struct.FT_Vector_ = type { i64, i64 }

@ft_trig_arctan_table = internal constant [22 x i64] [i64 1740967, i64 919879, i64 466945, i64 234379, i64 117304, i64 58666, i64 29335, i64 14668, i64 7334, i64 3667, i64 1833, i64 917, i64 458, i64 229, i64 115, i64 57, i64 29, i64 14, i64 7, i64 4, i64 2, i64 1], align 16

; Function Attrs: nounwind uwtable
define internal void @ft_trig_pseudo_rotate(ptr noundef %0, i64 noundef %1) #0 {
  %3 = alloca ptr, align 8
  %4 = alloca i64, align 8
  %5 = alloca i32, align 4
  %6 = alloca i64, align 8
  %7 = alloca i64, align 8
  %8 = alloca i64, align 8
  %9 = alloca i64, align 8
  %10 = alloca ptr, align 8
  store ptr %0, ptr %3, align 8, !tbaa !152
  store i64 %1, ptr %4, align 8, !tbaa !47
  call void @llvm.lifetime.start.p0(i64 4, ptr %5) #10
  call void @llvm.lifetime.start.p0(i64 8, ptr %6) #10
  call void @llvm.lifetime.start.p0(i64 8, ptr %7) #10
  call void @llvm.lifetime.start.p0(i64 8, ptr %8) #10
  call void @llvm.lifetime.start.p0(i64 8, ptr %9) #10
  call void @llvm.lifetime.start.p0(i64 8, ptr %10) #10
  %11 = load ptr, ptr %3, align 8, !tbaa !152
  %12 = getelementptr inbounds nuw %struct.FT_Vector_, ptr %11, i32 0, i32 0
  %13 = load i64, ptr %12, align 8, !tbaa !150
  store i64 %13, ptr %6, align 8, !tbaa !47
  %14 = load ptr, ptr %3, align 8, !tbaa !152
  %15 = getelementptr inbounds nuw %struct.FT_Vector_, ptr %14, i32 0, i32 1
  %16 = load i64, ptr %15, align 8, !tbaa !151
  store i64 %16, ptr %7, align 8, !tbaa !47
  br label %17

17:                                               ; preds = %20, %2
  %18 = load i64, ptr %4, align 8, !tbaa !47
  %19 = icmp slt i64 %18, -2949120
  br i1 %19, label %20, label %27

20:                                               ; preds = %17
  %21 = load i64, ptr %7, align 8, !tbaa !47
  store i64 %21, ptr %8, align 8, !tbaa !47
  %22 = load i64, ptr %6, align 8, !tbaa !47
  %23 = sub nsw i64 0, %22
  store i64 %23, ptr %7, align 8, !tbaa !47
  %24 = load i64, ptr %8, align 8, !tbaa !47
  store i64 %24, ptr %6, align 8, !tbaa !47
  %25 = load i64, ptr %4, align 8, !tbaa !47
  %26 = add nsw i64 %25, 5898240
  store i64 %26, ptr %4, align 8, !tbaa !47
  br label %17, !llvm.loop !675

27:                                               ; preds = %17
  br label %28

28:                                               ; preds = %31, %27
  %29 = load i64, ptr %4, align 8, !tbaa !47
  %30 = icmp sgt i64 %29, 2949120
  br i1 %30, label %31, label %38

31:                                               ; preds = %28
  %32 = load i64, ptr %7, align 8, !tbaa !47
  %33 = sub nsw i64 0, %32
  store i64 %33, ptr %8, align 8, !tbaa !47
  %34 = load i64, ptr %6, align 8, !tbaa !47
  store i64 %34, ptr %7, align 8, !tbaa !47
  %35 = load i64, ptr %8, align 8, !tbaa !47
  store i64 %35, ptr %6, align 8, !tbaa !47
  %36 = load i64, ptr %4, align 8, !tbaa !47
  %37 = sub nsw i64 %36, 5898240
  store i64 %37, ptr %4, align 8, !tbaa !47
  br label %28, !llvm.loop !676

38:                                               ; preds = %28
  store ptr @ft_trig_arctan_table, ptr %10, align 8, !tbaa !10
  store i32 1, ptr %5, align 4, !tbaa !8
  store i64 1, ptr %9, align 8, !tbaa !47
  br label %39

39:                                               ; preds = %92, %38
  %40 = load i32, ptr %5, align 4, !tbaa !8
  %41 = icmp slt i32 %40, 23
  br i1 %41, label %42, label %97

42:                                               ; preds = %39
  %43 = load i64, ptr %4, align 8, !tbaa !47
  %44 = icmp slt i64 %43, 0
  br i1 %44, label %45, label %68

45:                                               ; preds = %42
  %46 = load i64, ptr %6, align 8, !tbaa !47
  %47 = load i64, ptr %7, align 8, !tbaa !47
  %48 = load i64, ptr %9, align 8, !tbaa !47
  %49 = add nsw i64 %47, %48
  %50 = load i32, ptr %5, align 4, !tbaa !8
  %51 = zext i32 %50 to i64
  %52 = ashr i64 %49, %51
  %53 = add nsw i64 %46, %52
  store i64 %53, ptr %8, align 8, !tbaa !47
  %54 = load i64, ptr %7, align 8, !tbaa !47
  %55 = load i64, ptr %6, align 8, !tbaa !47
  %56 = load i64, ptr %9, align 8, !tbaa !47
  %57 = add nsw i64 %55, %56
  %58 = load i32, ptr %5, align 4, !tbaa !8
  %59 = zext i32 %58 to i64
  %60 = ashr i64 %57, %59
  %61 = sub nsw i64 %54, %60
  store i64 %61, ptr %7, align 8, !tbaa !47
  %62 = load i64, ptr %8, align 8, !tbaa !47
  store i64 %62, ptr %6, align 8, !tbaa !47
  %63 = load ptr, ptr %10, align 8, !tbaa !10
  %64 = getelementptr inbounds nuw i64, ptr %63, i32 1
  store ptr %64, ptr %10, align 8, !tbaa !10
  %65 = load i64, ptr %63, align 8, !tbaa !47
  %66 = load i64, ptr %4, align 8, !tbaa !47
  %67 = add nsw i64 %66, %65
  store i64 %67, ptr %4, align 8, !tbaa !47
  br label %91

68:                                               ; preds = %42
  %69 = load i64, ptr %6, align 8, !tbaa !47
  %70 = load i64, ptr %7, align 8, !tbaa !47
  %71 = load i64, ptr %9, align 8, !tbaa !47
  %72 = add nsw i64 %70, %71
  %73 = load i32, ptr %5, align 4, !tbaa !8
  %74 = zext i32 %73 to i64
  %75 = ashr i64 %72, %74
  %76 = sub nsw i64 %69, %75
  store i64 %76, ptr %8, align 8, !tbaa !47
  %77 = load i64, ptr %7, align 8, !tbaa !47
  %78 = load i64, ptr %6, align 8, !tbaa !47
  %79 = load i64, ptr %9, align 8, !tbaa !47
  %80 = add nsw i64 %78, %79
  %81 = load i32, ptr %5, align 4, !tbaa !8
  %82 = zext i32 %81 to i64
  %83 = ashr i64 %80, %82
  %84 = add nsw i64 %77, %83
  store i64 %84, ptr %7, align 8, !tbaa !47
  %85 = load i64, ptr %8, align 8, !tbaa !47
  store i64 %85, ptr %6, align 8, !tbaa !47
  %86 = load ptr, ptr %10, align 8, !tbaa !10
  %87 = getelementptr inbounds nuw i64, ptr %86, i32 1
  store ptr %87, ptr %10, align 8, !tbaa !10
  %88 = load i64, ptr %86, align 8, !tbaa !47
  %89 = load i64, ptr %4, align 8, !tbaa !47
  %90 = sub nsw i64 %89, %88
  store i64 %90, ptr %4, align 8, !tbaa !47
  br label %91

91:                                               ; preds = %68, %45
  br label %92

92:                                               ; preds = %91
  %93 = load i64, ptr %9, align 8, !tbaa !47
  %94 = shl i64 %93, 1
  store i64 %94, ptr %9, align 8, !tbaa !47
  %95 = load i32, ptr %5, align 4, !tbaa !8
  %96 = add nsw i32 %95, 1
  store i32 %96, ptr %5, align 4, !tbaa !8
  br label %39, !llvm.loop !677

97:                                               ; preds = %39
  %98 = load i64, ptr %6, align 8, !tbaa !47
  %99 = load ptr, ptr %3, align 8, !tbaa !152
  %100 = getelementptr inbounds nuw %struct.FT_Vector_, ptr %99, i32 0, i32 0
  store i64 %98, ptr %100, align 8, !tbaa !150
  %101 = load i64, ptr %7, align 8, !tbaa !47
  %102 = load ptr, ptr %3, align 8, !tbaa !152
  %103 = getelementptr inbounds nuw %struct.FT_Vector_, ptr %102, i32 0, i32 1
  store i64 %101, ptr %103, align 8, !tbaa !151
  call void @llvm.lifetime.end.p0(i64 8, ptr %10) #10
  call void @llvm.lifetime.end.p0(i64 8, ptr %9) #10
  call void @llvm.lifetime.end.p0(i64 8, ptr %8) #10
  call void @llvm.lifetime.end.p0(i64 8, ptr %7) #10
  call void @llvm.lifetime.end.p0(i64 8, ptr %6) #10
  call void @llvm.lifetime.end.p0(i64 4, ptr %5) #10
  ret void
}

; Function Attrs: nounwind uwtable
define void @FT_Vector_Unit(ptr noundef %0, i64 noundef %1) #0 {
  %3 = alloca ptr, align 8
  %4 = alloca i64, align 8
  store ptr %0, ptr %3, align 8, !tbaa !152
  store i64 %1, ptr %4, align 8, !tbaa !47
  %5 = load ptr, ptr %3, align 8, !tbaa !152
  %6 = icmp ne ptr %5, null
  br i1 %6, label %8, label %7

7:                                                ; preds = %2
  br label %29

8:                                                ; preds = %2
  %9 = load ptr, ptr %3, align 8, !tbaa !152
  %10 = getelementptr inbounds nuw %struct.FT_Vector_, ptr %9, i32 0, i32 0
  store i64 14408027, ptr %10, align 8, !tbaa !150
  %11 = load ptr, ptr %3, align 8, !tbaa !152
  %12 = getelementptr inbounds nuw %struct.FT_Vector_, ptr %11, i32 0, i32 1
  store i64 0, ptr %12, align 8, !tbaa !151
  %13 = load ptr, ptr %3, align 8, !tbaa !152
  %14 = load i64, ptr %4, align 8, !tbaa !47
  call void @ft_trig_pseudo_rotate(ptr noundef %13, i64 noundef %14)
  %15 = load ptr, ptr %3, align 8, !tbaa !152
  %16 = getelementptr inbounds nuw %struct.FT_Vector_, ptr %15, i32 0, i32 0
  %17 = load i64, ptr %16, align 8, !tbaa !150
  %18 = add nsw i64 %17, 128
  %19 = ashr i64 %18, 8
  %20 = load ptr, ptr %3, align 8, !tbaa !152
  %21 = getelementptr inbounds nuw %struct.FT_Vector_, ptr %20, i32 0, i32 0
  store i64 %19, ptr %21, align 8, !tbaa !150
  %22 = load ptr, ptr %3, align 8, !tbaa !152
  %23 = getelementptr inbounds nuw %struct.FT_Vector_, ptr %22, i32 0, i32 1
  %24 = load i64, ptr %23, align 8, !tbaa !151
  %25 = add nsw i64 %24, 128
  %26 = ashr i64 %25, 8
  %27 = load ptr, ptr %3, align 8, !tbaa !152
  %28 = getelementptr inbounds nuw %struct.FT_Vector_, ptr %27, i32 0, i32 1
  store i64 %26, ptr %28, align 8, !tbaa !151
  br label %29

29:                                               ; preds = %8, %7
  ret void
}

; Function Attrs: nounwind uwtable
define i64 @FT_Cos(i64 noundef %0) #0 {
  %2 = alloca i64, align 8
  %3 = alloca %struct.FT_Vector_, align 8
  store i64 %0, ptr %2, align 8, !tbaa !47
  call void @llvm.lifetime.start.p0(i64 16, ptr %3) #10
  %4 = load i64, ptr %2, align 8, !tbaa !47
  call void @FT_Vector_Unit(ptr noundef %3, i64 noundef %4)
  %5 = getelementptr inbounds nuw %struct.FT_Vector_, ptr %3, i32 0, i32 0
  %6 = load i64, ptr %5, align 8, !tbaa !150
  call void @llvm.lifetime.end.p0(i64 16, ptr %3) #10
  ret i64 %6
}