; Function Attrs: nofree norecurse nosync nounwind memory(none) uwtable
define range(i64 -36028797018963968, 36028797018963968) i64 @FT_Cos(i64 noundef %0) local_unnamed_addr #4 {
  %2 = icmp slt i64 %0, -2949120
  br i1 %2, label %.lr.ph.i.i, label %.preheader53.i.i

.preheader53.i.i:                                 ; preds = %1
  %3 = icmp sgt i64 %0, 2949120
  br i1 %3, label %.lr.ph62.i.i, label %.preheader.i.i.preheader

.lr.ph.i.i:                                       ; preds = %1, %.lr.ph.i.i
  %.04256.i.i = phi i64 [ %4, %.lr.ph.i.i ], [ 0, %1 ]
  %.04455.i.i = phi i64 [ %.04256.i.i, %.lr.ph.i.i ], [ 14408027, %1 ]
  %.04954.i.i = phi i64 [ %5, %.lr.ph.i.i ], [ %0, %1 ]
  %4 = sub nsw i64 0, %.04455.i.i
  %5 = add nsw i64 %.04954.i.i, 5898240
  %6 = icmp samesign ult i64 %.04954.i.i, -8847360
  br i1 %6, label %.lr.ph.i.i, label %.preheader.i.i.preheader, !llvm.loop !549

.lr.ph62.i.i:                                     ; preds = %.preheader53.i.i, %.lr.ph62.i.i
  %.14361.i.i = phi i64 [ %.14560.i.i, %.lr.ph62.i.i ], [ 0, %.preheader53.i.i ]
  %.14560.i.i = phi i64 [ %7, %.lr.ph62.i.i ], [ 14408027, %.preheader53.i.i ]
  %.15059.i.i = phi i64 [ %8, %.lr.ph62.i.i ], [ %0, %.preheader53.i.i ]
  %7 = sub nsw i64 0, %.14361.i.i
  %8 = add nsw i64 %.15059.i.i, -5898240
  %9 = icmp samesign ugt i64 %.15059.i.i, 8847360
  br i1 %9, label %.lr.ph62.i.i, label %.preheader.i.i.preheader, !llvm.loop !550

.preheader.i.i.preheader:                         ; preds = %.lr.ph62.i.i, %.lr.ph.i.i, %.preheader53.i.i
  %.269.i.i.ph = phi i64 [ 0, %.preheader53.i.i ], [ %4, %.lr.ph.i.i ], [ %.14560.i.i, %.lr.ph62.i.i ]
  %.24668.i.i.ph = phi i64 [ 14408027, %.preheader53.i.i ], [ %.04256.i.i, %.lr.ph.i.i ], [ %7, %.lr.ph62.i.i ]
  %.25166.i.i.ph = phi i64 [ %0, %.preheader53.i.i ], [ %5, %.lr.ph.i.i ], [ %8, %.lr.ph62.i.i ]
  br label %.preheader.i.i

.preheader.i.i:                                   ; preds = %.preheader.i.i.preheader, %24
  %indvars.iv.i.i = phi i64 [ %indvars.iv.next.i.i, %24 ], [ 1, %.preheader.i.i.preheader ]
  %.071.i.i = phi ptr [ %.1.i.i, %24 ], [ @ft_trig_arctan_table, %.preheader.i.i.preheader ]
  %.04170.i.i = phi i64 [ %25, %24 ], [ 1, %.preheader.i.i.preheader ]
  %.269.i.i = phi i64 [ %.3.i.i, %24 ], [ %.269.i.i.ph, %.preheader.i.i.preheader ]
  %.24668.i.i = phi i64 [ %.347.i.i, %24 ], [ %.24668.i.i.ph, %.preheader.i.i.preheader ]
  %.25166.i.i = phi i64 [ %.352.i.i, %24 ], [ %.25166.i.i.ph, %.preheader.i.i.preheader ]
  %10 = icmp slt i64 %.25166.i.i, 0
  %11 = add nsw i64 %.269.i.i, %.04170.i.i
  %12 = ashr i64 %11, %indvars.iv.i.i
  %13 = add nsw i64 %.24668.i.i, %.04170.i.i
  %14 = ashr i64 %13, %indvars.iv.i.i
  %15 = load i64, ptr %.071.i.i, align 8, !tbaa !37
  br i1 %10, label %16, label %20

16:                                               ; preds = %.preheader.i.i
  %17 = add nsw i64 %12, %.24668.i.i
  %18 = sub nsw i64 %.269.i.i, %14
  %19 = add nsw i64 %15, %.25166.i.i
  br label %24

20:                                               ; preds = %.preheader.i.i
  %21 = sub nsw i64 %.24668.i.i, %12
  %22 = add nsw i64 %14, %.269.i.i
  %23 = sub nsw i64 %.25166.i.i, %15
  br label %24

24:                                               ; preds = %20, %16
  %.352.i.i = phi i64 [ %19, %16 ], [ %23, %20 ]
  %.347.i.i = phi i64 [ %17, %16 ], [ %21, %20 ]
  %.3.i.i = phi i64 [ %18, %16 ], [ %22, %20 ]
  %.1.i.i = getelementptr inbounds nuw i8, ptr %.071.i.i, i64 8
  %25 = shl i64 %.04170.i.i, 1
  %indvars.iv.next.i.i = add nuw nsw i64 %indvars.iv.i.i, 1
  %exitcond.not.i.i = icmp eq i64 %indvars.iv.next.i.i, 23
  br i1 %exitcond.not.i.i, label %FT_Vector_Unit.exit, label %.preheader.i.i, !llvm.loop !551

FT_Vector_Unit.exit:                              ; preds = %24
  %26 = add nsw i64 %.347.i.i, 128
  %27 = ashr i64 %26, 8
  ret i64 %27
}